; Function Attrs: mustprogress nounwind uwtable
define hidden void @_ZN11StringDedup4Stat21report_process_resumeEv(ptr nocapture noundef nonnull writeonly align 8 dereferenceable(248) %0) local_unnamed_addr #2 align 2 {
  %2 = load volatile ptr, ptr getelementptr inbounds (i8, ptr @_ZN16LogTagSetMappingILN6LogTag4typeE148ELS1_114ELS1_0ELS1_0ELS1_0ELS1_0EE7_tagsetE, i64 56), align 8
  %.not = icmp eq ptr %2, null
  br i1 %.not, label %4, label %3

3:                                                ; preds = %1
  tail call void (ptr, ...) @_ZN7LogImplILN6LogTag4typeE148ELS1_114ELS1_0ELS1_0ELS1_0ELS1_0EE5writeILN8LogLevel4typeE2EEEvPKcz(ptr noundef nonnull @.str.11)
  br label %4

4:                                                ; preds = %1, %3
  %5 = tail call { i64, i64 } @_ZN29CompositeElapsedCounterSource3nowEv() #7
  %6 = extractvalue { i64, i64 } %5, 0
  %7 = extractvalue { i64, i64 } %5, 1
  %8 = getelementptr inbounds i8, ptr %0, i64 168
  store i64 %6, ptr %8, align 8
  %.sroa.2.0..sroa_idx = getelementptr inbounds i8, ptr %0, i64 176
  store i64 %7, ptr %.sroa.2.0..sroa_idx, align 8
  ret void
}